Certificate:
    Data:
        Version: 3 (0x2)
        Serial Number: 10976914710091120435 (0x9855d5c548bdbf33)
    Signature Algorithm: sha1WithRSAEncryption
        Issuer: C=AT, ST=Wien, O=dasz.at OG, CN=dasz.at OG/emailAddress=office@dasz.at
        Validity
            Not Before: Feb  7 09:18:58 2014 GMT
            Not After : Feb  5 09:18:58 2024 GMT
        Subject: C=AT, ST=Wien, O=dasz.at OG, CN=dasz.at OG/emailAddress=office@dasz.at
        Subject Public Key Info:
            Public Key Algorithm: rsaEncryption
                Public-Key: (2048 bit)
                Modulus:
                    00:dc:5d:bb:8a:ac:a1:e2:d4:d3:93:04:c4:04:9c:
                    49:da:6c:1c:33:e8:c7:81:4a:91:b3:26:7c:9d:94:
                    94:e1:c0:3e:74:19:60:8a:68:df:59:34:08:8f:48:
                    a4:3c:97:17:ab:d5:ef:bb:fc:55:9a:39:ae:d4:2b:
                    1d:f3:cf:c5:0a:45:a8:ef:47:40:9e:68:a3:8c:33:
                    e8:4f:4f:24:45:43:45:a5:30:12:33:b5:74:ff:95:
                    8f:4f:7f:b2:e8:ea:2f:e5:d0:73:48:3a:0b:a6:12:
                    21:a4:03:2c:f0:b9:df:a8:0b:fb:8d:30:b7:c5:43:
                    fd:07:10:c6:a8:54:92:9d:f2:87:55:5e:4d:4a:7b:
                    ee:61:57:dc:38:aa:f4:d1:d3:7c:36:dc:38:02:fb:
                    a2:43:57:a4:bd:c9:f3:7b:00:a6:58:7e:29:2a:05:
                    3b:44:d0:46:d8:fd:1a:cc:e8:bc:7f:81:46:2b:02:
                    2d:ac:82:36:b9:97:70:9e:e7:ff:e1:94:84:7b:c2:
                    37:64:0c:40:00:8c:9c:ce:47:44:45:42:8a:05:53:
                    33:fe:1c:a0:25:5d:39:f3:76:e5:d9:d8:e3:ac:4e:
                    e3:dc:3f:ed:18:83:82:ba:94:83:ab:a6:85:8a:97:
                    ee:5e:45:1b:4e:01:a4:2f:20:f1:d8:fc:c6:f2:92:
                    f3:c7
                Exponent: 65537 (0x10001)
        X509v3 extensions:
            X509v3 Subject Key Identifier: 
                04:4D:3A:66:23:DF:37:5A:99:57:4A:4A:9B:E8:6E:D9:E2:E2:64:9C
            X509v3 Authority Key Identifier: 
                keyid:04:4D:3A:66:23:DF:37:5A:99:57:4A:4A:9B:E8:6E:D9:E2:E2:64:9C

            X509v3 Basic Constraints: 
                CA:TRUE
    Signature Algorithm: sha1WithRSAEncryption
         c6:e5:c7:9d:49:00:45:81:8c:77:e0:be:94:b2:3f:70:89:31:
         e7:86:0d:70:bb:a5:0e:29:93:89:e9:03:0f:74:37:73:89:18:
         48:73:03:05:0e:9b:3c:24:4a:a7:b7:0a:00:38:61:c4:b5:b6:
         ed:35:18:e6:3f:93:54:be:10:40:96:15:e8:be:a5:37:38:99:
         21:ed:75:34:9c:b8:75:f7:e4:cf:d0:e8:06:e0:e1:06:ba:0d:
         b4:b5:8b:34:84:18:5e:dd:ab:91:04:4d:09:17:83:78:a4:c7:
         36:5f:05:8a:16:f9:07:48:11:b0:19:ed:4c:4f:d2:f9:41:a1:
         70:e8:19:50:d5:4f:32:5e:d5:56:d7:f3:35:33:0a:9b:43:2f:
         f6:f5:91:91:1f:70:97:82:a5:81:f7:22:d8:aa:c7:b1:4f:26:
         a4:63:70:5f:e2:6d:19:e5:38:f6:0c:a8:88:d4:2d:f7:d4:3d:
         2a:9a:81:22:54:7d:13:c7:0a:bc:02:99:b8:72:34:53:fb:92:
         ac:23:44:00:ec:33:ca:79:ea:76:58:32:4e:b6:4c:fb:d2:1c:
         1c:b0:1c:ad:64:64:01:f6:c1:80:18:89:91:07:ad:09:6d:44:
         48:e0:9c:d0:81:66:46:90:71:ab:c2:e9:a9:f1:6a:08:96:3e:
         fa:13:a9:79
-----BEGIN CERTIFICATE-----
MIIDnTCCAoWgAwIBAgIJAJhV1cVIvb8zMA0GCSqGSIb3DQEBBQUAMGUxCzAJBgNV
BAYTAkFUMQ0wCwYDVQQIDARXaWVuMRMwEQYDVQQKDApkYXN6LmF0IE9HMRMwEQYD
VQQDDApkYXN6LmF0IE9HMR0wGwYJKoZIhvcNAQkBFg5vZmZpY2VAZGFzei5hdDAe
Fw0xNDAyMDcwOTE4NThaFw0yNDAyMDUwOTE4NThaMGUxCzAJBgNVBAYTAkFUMQ0w
CwYDVQQIDARXaWVuMRMwEQYDVQQKDApkYXN6LmF0IE9HMRMwEQYDVQQDDApkYXN6
LmF0IE9HMR0wGwYJKoZIhvcNAQkBFg5vZmZpY2VAZGFzei5hdDCCASIwDQYJKoZI
hvcNAQEBBQADggEPADCCAQoCggEBANxdu4qsoeLU05MExAScSdpsHDPox4FKkbMm
fJ2UlOHAPnQZYIpo31k0CI9IpDyXF6vV77v8VZo5rtQrHfPPxQpFqO9HQJ5oo4wz
6E9PJEVDRaUwEjO1dP+Vj09/sujqL+XQc0g6C6YSIaQDLPC536gL+40wt8VD/QcQ
xqhUkp3yh1VeTUp77mFX3Diq9NHTfDbcOAL7okNXpL3J83sAplh+KSoFO0TQRtj9
GszovH+BRisCLayCNrmXcJ7n/+GUhHvCN2QMQACMnM5HREVCigVTM/4coCVdOfN2
5dnY46xO49w/7RiDgrqUg6umhYqX7l5FG04BpC8g8dj8xvKS88cCAwEAAaNQME4w
HQYDVR0OBBYEFARNOmYj3zdamVdKSpvobtni4mScMB8GA1UdIwQYMBaAFARNOmYj
3zdamVdKSpvobtni4mScMAwGA1UdEwQFMAMBAf8wDQYJKoZIhvcNAQEFBQADggEB
AMblx51JAEWBjHfgvpSyP3CJMeeGDXC7pQ4pk4npAw90N3OJGEhzAwUOmzwkSqe3
CgA4YcS1tu01GOY/k1S+EECWFei+pTc4mSHtdTScuHX35M/Q6Abg4Qa6DbS1izSE
GF7dq5EETQkXg3ikxzZfBYoW+QdIEbAZ7UxP0vlBoXDoGVDVTzJe1VbX8zUzCptD
L/b1kZEfcJeCpYH3Itiqx7FPJqRjcF/ibRnlOPYMqIjULffUPSqagSJUfRPHCrwC
mbhyNFP7kqwjRADsM8p56nZYMk62TPvSHBywHK1kZAH2wYAYiZEHrQltREjgnNCB
ZkaQcavC6anxagiWPvoTqXk=
-----END CERTIFICATE-----
